target datalayout = "e-m:e-p270:32:32-p271:32:32-p272:64:64-i64:64-i128:128-f80:128-n8:16:32:64-S128"
target triple = "x86_64-pc-linux-gnu"

%struct.JNINativeInterface_ = type { ptr, ptr, ptr, ptr, ptr, ptr, ptr, ptr, ptr, ptr, ptr, ptr, ptr, ptr, ptr, ptr, ptr, ptr, ptr, ptr, ptr, ptr, ptr, ptr, ptr, ptr, ptr, ptr, ptr, ptr, ptr, ptr, ptr, ptr, ptr, ptr, ptr, ptr, ptr, ptr, ptr, ptr, ptr, ptr, ptr, ptr, ptr, ptr, ptr, ptr, ptr, ptr, ptr, ptr, ptr, ptr, ptr, ptr, ptr, ptr, ptr, ptr, ptr, ptr, ptr, ptr, ptr, ptr, ptr, ptr, ptr, ptr, ptr, ptr, ptr, ptr, ptr, ptr, ptr, ptr, ptr, ptr, ptr, ptr, ptr, ptr, ptr, ptr, ptr, ptr, ptr, ptr, ptr, ptr, ptr, ptr, ptr, ptr, ptr, ptr, ptr, ptr, ptr, ptr, ptr, ptr, ptr, ptr, ptr, ptr, ptr, ptr, ptr, ptr, ptr, ptr, ptr, ptr, ptr, ptr, ptr, ptr, ptr, ptr, ptr, ptr, ptr, ptr, ptr, ptr, ptr, ptr, ptr, ptr, ptr, ptr, ptr, ptr, ptr, ptr, ptr, ptr, ptr, ptr, ptr, ptr, ptr, ptr, ptr, ptr, ptr, ptr, ptr, ptr, ptr, ptr, ptr, ptr, ptr, ptr, ptr, ptr, ptr, ptr, ptr, ptr, ptr, ptr, ptr, ptr, ptr, ptr, ptr, ptr, ptr, ptr, ptr, ptr, ptr, ptr, ptr, ptr, ptr, ptr, ptr, ptr, ptr, ptr, ptr, ptr, ptr, ptr, ptr, ptr, ptr, ptr, ptr, ptr, ptr, ptr, ptr, ptr, ptr, ptr, ptr, ptr, ptr, ptr, ptr, ptr, ptr, ptr, ptr, ptr, ptr, ptr, ptr, ptr, ptr, ptr, ptr, ptr, ptr, ptr, ptr, ptr, ptr, ptr, ptr, ptr, ptr, ptr, ptr, ptr, ptr }

@JPEGImageReader_readInputDataID = internal global ptr null, align 8
@JPEGImageReader_warningOccurredID = internal global ptr null, align 8
@JPEGImageReader_skipInputBytesID = internal global ptr null, align 8
@JPEGImageReader_pushBackID = internal global ptr null, align 8
@.str = private unnamed_addr constant [14 x i8] c"readInputData\00", align 1
@.str.1 = private unnamed_addr constant [8 x i8] c"([BII)I\00", align 1
@.str.2 = private unnamed_addr constant [15 x i8] c"skipInputBytes\00", align 1
@.str.3 = private unnamed_addr constant [5 x i8] c"(J)J\00", align 1
@.str.4 = private unnamed_addr constant [16 x i8] c"warningOccurred\00", align 1
@.str.5 = private unnamed_addr constant [5 x i8] c"(I)V\00", align 1
@.str.6 = private unnamed_addr constant [19 x i8] c"warningWithMessage\00", align 1
@.str.7 = private unnamed_addr constant [22 x i8] c"(Ljava/lang/String;)V\00", align 1
@JPEGImageReader_warningWithMessageID = internal global ptr null, align 8
@.str.8 = private unnamed_addr constant [13 x i8] c"setImageData\00", align 1
@.str.9 = private unnamed_addr constant [11 x i8] c"(IIIII[B)V\00", align 1
@JPEGImageReader_setImageDataID = internal global ptr null, align 8
@.str.10 = private unnamed_addr constant [13 x i8] c"acceptPixels\00", align 1
@.str.11 = private unnamed_addr constant [6 x i8] c"(IZ)V\00", align 1
@JPEGImageReader_acceptPixelsID = internal global ptr null, align 8
@.str.12 = private unnamed_addr constant [12 x i8] c"passStarted\00", align 1
@JPEGImageReader_passStartedID = internal global ptr null, align 8
@.str.13 = private unnamed_addr constant [13 x i8] c"passComplete\00", align 1
@.str.14 = private unnamed_addr constant [4 x i8] c"()V\00", align 1
@JPEGImageReader_passCompleteID = internal global ptr null, align 8
@.str.15 = private unnamed_addr constant [9 x i8] c"pushBack\00", align 1
@.str.16 = private unnamed_addr constant [14 x i8] c"skipPastImage\00", align 1
@JPEGImageReader_skipPastImageID = internal global ptr null, align 8
@.str.17 = private unnamed_addr constant [7 x i8] c"qTable\00", align 1
@.str.18 = private unnamed_addr constant [3 x i8] c"[I\00", align 1
@JPEGQTable_tableID = internal global ptr null, align 8
@.str.19 = private unnamed_addr constant [8 x i8] c"lengths\00", align 1
@.str.20 = private unnamed_addr constant [3 x i8] c"[S\00", align 1
@JPEGHuffmanTable_lengthsID = internal global ptr null, align 8
@.str.21 = private unnamed_addr constant [7 x i8] c"values\00", align 1
@JPEGHuffmanTable_valuesID = internal global ptr null, align 8

; Function Attrs: nounwind uwtable
define void @Java_com_sun_imageio_plugins_jpeg_JPEGImageReader_initReaderIDs(ptr noundef %0, ptr noundef %1, ptr noundef %2, ptr noundef %3, ptr noundef %4) #0 {
  %6 = alloca ptr, align 8
  %7 = alloca ptr, align 8
  %8 = alloca ptr, align 8
  %9 = alloca ptr, align 8
  %10 = alloca ptr, align 8
  store ptr %0, ptr %6, align 8
  store ptr %1, ptr %7, align 8
  store ptr %2, ptr %8, align 8
  store ptr %3, ptr %9, align 8
  store ptr %4, ptr %10, align 8
  br label %11

11:                                               ; preds = %5
  %12 = load ptr, ptr %6, align 8
  %13 = load ptr, ptr %12, align 8
  %14 = getelementptr inbounds %struct.JNINativeInterface_, ptr %13, i32 0, i32 33
  %15 = load ptr, ptr %14, align 8
  %16 = load ptr, ptr %6, align 8
  %17 = load ptr, ptr %7, align 8
  %18 = call ptr %15(ptr noundef %16, ptr noundef %17, ptr noundef @.str, ptr noundef @.str.1)
  store ptr %18, ptr @JPEGImageReader_readInputDataID, align 8
  %19 = icmp eq ptr %18, null
  br i1 %19, label %20, label %21

20:                                               ; preds = %11
  br label %166

21:                                               ; preds = %11
  br label %22

22:                                               ; preds = %21
  br label %23

23:                                               ; preds = %22
  %24 = load ptr, ptr %6, align 8
  %25 = load ptr, ptr %24, align 8
  %26 = getelementptr inbounds %struct.JNINativeInterface_, ptr %25, i32 0, i32 33
  %27 = load ptr, ptr %26, align 8
  %28 = load ptr, ptr %6, align 8
  %29 = load ptr, ptr %7, align 8
  %30 = call ptr %27(ptr noundef %28, ptr noundef %29, ptr noundef @.str.2, ptr noundef @.str.3)
  store ptr %30, ptr @JPEGImageReader_skipInputBytesID, align 8
  %31 = icmp eq ptr %30, null
  br i1 %31, label %32, label %33

32:                                               ; preds = %23
  br label %166

33:                                               ; preds = %23
  br label %34

34:                                               ; preds = %33
  br label %35

35:                                               ; preds = %34
  %36 = load ptr, ptr %6, align 8
  %37 = load ptr, ptr %36, align 8
  %38 = getelementptr inbounds %struct.JNINativeInterface_, ptr %37, i32 0, i32 33
  %39 = load ptr, ptr %38, align 8
  %40 = load ptr, ptr %6, align 8
  %41 = load ptr, ptr %7, align 8
  %42 = call ptr %39(ptr noundef %40, ptr noundef %41, ptr noundef @.str.4, ptr noundef @.str.5)
  store ptr %42, ptr @JPEGImageReader_warningOccurredID, align 8
  %43 = icmp eq ptr %42, null
  br i1 %43, label %44, label %45

44:                                               ; preds = %35
  br label %166

45:                                               ; preds = %35
  br label %46

46:                                               ; preds = %45
  br label %47

47:                                               ; preds = %46
  %48 = load ptr, ptr %6, align 8
  %49 = load ptr, ptr %48, align 8
  %50 = getelementptr inbounds %struct.JNINativeInterface_, ptr %49, i32 0, i32 33
  %51 = load ptr, ptr %50, align 8
  %52 = load ptr, ptr %6, align 8
  %53 = load ptr, ptr %7, align 8
  %54 = call ptr %51(ptr noundef %52, ptr noundef %53, ptr noundef @.str.6, ptr noundef @.str.7)
  store ptr %54, ptr @JPEGImageReader_warningWithMessageID, align 8
  %55 = icmp eq ptr %54, null
  br i1 %55, label %56, label %57

56:                                               ; preds = %47
  br label %166

57:                                               ; preds = %47
  br label %58

58:                                               ; preds = %57
  br label %59

59:                                               ; preds = %58
  %60 = load ptr, ptr %6, align 8
  %61 = load ptr, ptr %60, align 8
  %62 = getelementptr inbounds %struct.JNINativeInterface_, ptr %61, i32 0, i32 33
  %63 = load ptr, ptr %62, align 8
  %64 = load ptr, ptr %6, align 8
  %65 = load ptr, ptr %7, align 8
  %66 = call ptr %63(ptr noundef %64, ptr noundef %65, ptr noundef @.str.8, ptr noundef @.str.9)
  store ptr %66, ptr @JPEGImageReader_setImageDataID, align 8
  %67 = icmp eq ptr %66, null
  br i1 %67, label %68, label %69

68:                                               ; preds = %59
  br label %166

69:                                               ; preds = %59
  br label %70

70:                                               ; preds = %69
  br label %71

71:                                               ; preds = %70
  %72 = load ptr, ptr %6, align 8
  %73 = load ptr, ptr %72, align 8
  %74 = getelementptr inbounds %struct.JNINativeInterface_, ptr %73, i32 0, i32 33
  %75 = load ptr, ptr %74, align 8
  %76 = load ptr, ptr %6, align 8
  %77 = load ptr, ptr %7, align 8
  %78 = call ptr %75(ptr noundef %76, ptr noundef %77, ptr noundef @.str.10, ptr noundef @.str.11)
  store ptr %78, ptr @JPEGImageReader_acceptPixelsID, align 8
  %79 = icmp eq ptr %78, null
  br i1 %79, label %80, label %81

80:                                               ; preds = %71
  br label %166

81:                                               ; preds = %71
  br label %82

82:                                               ; preds = %81
  br label %83

83:                                               ; preds = %82
  %84 = load ptr, ptr %6, align 8
  %85 = load ptr, ptr %84, align 8
  %86 = getelementptr inbounds %struct.JNINativeInterface_, ptr %85, i32 0, i32 33
  %87 = load ptr, ptr %86, align 8
  %88 = load ptr, ptr %6, align 8
  %89 = load ptr, ptr %7, align 8
  %90 = call ptr %87(ptr noundef %88, ptr noundef %89, ptr noundef @.str.12, ptr noundef @.str.5)
  store ptr %90, ptr @JPEGImageReader_passStartedID, align 8
  %91 = icmp eq ptr %90, null
  br i1 %91, label %92, label %93

92:                                               ; preds = %83
  br label %166

93:                                               ; preds = %83
  br label %94

94:                                               ; preds = %93
  br label %95

95:                                               ; preds = %94
  %96 = load ptr, ptr %6, align 8
  %97 = load ptr, ptr %96, align 8
  %98 = getelementptr inbounds %struct.JNINativeInterface_, ptr %97, i32 0, i32 33
  %99 = load ptr, ptr %98, align 8
  %100 = load ptr, ptr %6, align 8
  %101 = load ptr, ptr %7, align 8
  %102 = call ptr %99(ptr noundef %100, ptr noundef %101, ptr noundef @.str.13, ptr noundef @.str.14)
  store ptr %102, ptr @JPEGImageReader_passCompleteID, align 8
  %103 = icmp eq ptr %102, null
  br i1 %103, label %104, label %105

104:                                              ; preds = %95
  br label %166

105:                                              ; preds = %95
  br label %106

106:                                              ; preds = %105
  br label %107

107:                                              ; preds = %106
  %108 = load ptr, ptr %6, align 8
  %109 = load ptr, ptr %108, align 8
  %110 = getelementptr inbounds %struct.JNINativeInterface_, ptr %109, i32 0, i32 33
  %111 = load ptr, ptr %110, align 8
  %112 = load ptr, ptr %6, align 8
  %113 = load ptr, ptr %7, align 8
  %114 = call ptr %111(ptr noundef %112, ptr noundef %113, ptr noundef @.str.15, ptr noundef @.str.5)
  store ptr %114, ptr @JPEGImageReader_pushBackID, align 8
  %115 = icmp eq ptr %114, null
  br i1 %115, label %116, label %117

116:                                              ; preds = %107
  br label %166

117:                                              ; preds = %107
  br label %118

118:                                              ; preds = %117
  br label %119

119:                                              ; preds = %118
  %120 = load ptr, ptr %6, align 8
  %121 = load ptr, ptr %120, align 8
  %122 = getelementptr inbounds %struct.JNINativeInterface_, ptr %121, i32 0, i32 33
  %123 = load ptr, ptr %122, align 8
  %124 = load ptr, ptr %6, align 8
  %125 = load ptr, ptr %7, align 8
  %126 = call ptr %123(ptr noundef %124, ptr noundef %125, ptr noundef @.str.16, ptr noundef @.str.5)
  store ptr %126, ptr @JPEGImageReader_skipPastImageID, align 8
  %127 = icmp eq ptr %126, null
  br i1 %127, label %128, label %129

128:                                              ; preds = %119
  br label %166

129:                                              ; preds = %119
  br label %130

130:                                              ; preds = %129
  br label %131

131:                                              ; preds = %130
  %132 = load ptr, ptr %6, align 8
  %133 = load ptr, ptr %132, align 8
  %134 = getelementptr inbounds %struct.JNINativeInterface_, ptr %133, i32 0, i32 94
  %135 = load ptr, ptr %134, align 8
  %136 = load ptr, ptr %6, align 8
  %137 = load ptr, ptr %9, align 8
  %138 = call ptr %135(ptr noundef %136, ptr noundef %137, ptr noundef @.str.17, ptr noundef @.str.18)
  store ptr %138, ptr @JPEGQTable_tableID, align 8
  %139 = icmp eq ptr %138, null
  br i1 %139, label %140, label %141

140:                                              ; preds = %131
  br label %166

141:                                              ; preds = %131
  br label %142

142:                                              ; preds = %141
  br label %143

143:                                              ; preds = %142
  %144 = load ptr, ptr %6, align 8
  %145 = load ptr, ptr %144, align 8
  %146 = getelementptr inbounds %struct.JNINativeInterface_, ptr %145, i32 0, i32 94
  %147 = load ptr, ptr %146, align 8
  %148 = load ptr, ptr %6, align 8
  %149 = load ptr, ptr %10, align 8
  %150 = call ptr %147(ptr noundef %148, ptr noundef %149, ptr noundef @.str.19, ptr noundef @.str.20)
  store ptr %150, ptr @JPEGHuffmanTable_lengthsID, align 8
  %151 = icmp eq ptr %150, null
  br i1 %151, label %152, label %153

152:                                              ; preds = %143
  br label %166

153:                                              ; preds = %143
  br label %154

154:                                              ; preds = %153
  br label %155

155:                                              ; preds = %154
  %156 = load ptr, ptr %6, align 8
  %157 = load ptr, ptr %156, align 8
  %158 = getelementptr inbounds %struct.JNINativeInterface_, ptr %157, i32 0, i32 94
  %159 = load ptr, ptr %158, align 8
  %160 = load ptr, ptr %6, align 8
  %161 = load ptr, ptr %10, align 8
  %162 = call ptr %159(ptr noundef %160, ptr noundef %161, ptr noundef @.str.21, ptr noundef @.str.20)
  store ptr %162, ptr @JPEGHuffmanTable_valuesID, align 8
  %163 = icmp eq ptr %162, null
  br i1 %163, label %164, label %165

164:                                              ; preds = %155
  br label %166

165:                                              ; preds = %155
  br label %166

166:                                              ; preds = %165, %164, %152, %140, %128, %116, %104, %92, %80, %68, %56, %44, %32, %20
  ret void
}