; Function Attrs: nounwind uwtable
define void @Java_com_sun_imageio_plugins_jpeg_JPEGImageReader_initReaderIDs(ptr noundef %0, ptr noundef %1, ptr nocapture noundef readnone %2, ptr noundef %3, ptr noundef %4) local_unnamed_addr #1 {
  %6 = load ptr, ptr %0, align 8
  %7 = getelementptr inbounds i8, ptr %6, i64 264
  %8 = load ptr, ptr %7, align 8
  %9 = tail call ptr %8(ptr noundef nonnull %0, ptr noundef %1, ptr noundef nonnull @.str, ptr noundef nonnull @.str.1) #13
  store ptr %9, ptr @JPEGImageReader_readInputDataID, align 8
  %10 = icmp eq ptr %9, null
  br i1 %10, label %82, label %11

11:                                               ; preds = %5
  %12 = load ptr, ptr %0, align 8
  %13 = getelementptr inbounds i8, ptr %12, i64 264
  %14 = load ptr, ptr %13, align 8
  %15 = tail call ptr %14(ptr noundef nonnull %0, ptr noundef %1, ptr noundef nonnull @.str.2, ptr noundef nonnull @.str.3) #13
  store ptr %15, ptr @JPEGImageReader_skipInputBytesID, align 8
  %16 = icmp eq ptr %15, null
  br i1 %16, label %82, label %17

17:                                               ; preds = %11
  %18 = load ptr, ptr %0, align 8
  %19 = getelementptr inbounds i8, ptr %18, i64 264
  %20 = load ptr, ptr %19, align 8
  %21 = tail call ptr %20(ptr noundef nonnull %0, ptr noundef %1, ptr noundef nonnull @.str.4, ptr noundef nonnull @.str.5) #13
  store ptr %21, ptr @JPEGImageReader_warningOccurredID, align 8
  %22 = icmp eq ptr %21, null
  br i1 %22, label %82, label %23

23:                                               ; preds = %17
  %24 = load ptr, ptr %0, align 8
  %25 = getelementptr inbounds i8, ptr %24, i64 264
  %26 = load ptr, ptr %25, align 8
  %27 = tail call ptr %26(ptr noundef nonnull %0, ptr noundef %1, ptr noundef nonnull @.str.6, ptr noundef nonnull @.str.7) #13
  store ptr %27, ptr @JPEGImageReader_warningWithMessageID, align 8
  %28 = icmp eq ptr %27, null
  br i1 %28, label %82, label %29

29:                                               ; preds = %23
  %30 = load ptr, ptr %0, align 8
  %31 = getelementptr inbounds i8, ptr %30, i64 264
  %32 = load ptr, ptr %31, align 8
  %33 = tail call ptr %32(ptr noundef nonnull %0, ptr noundef %1, ptr noundef nonnull @.str.8, ptr noundef nonnull @.str.9) #13
  store ptr %33, ptr @JPEGImageReader_setImageDataID, align 8
  %34 = icmp eq ptr %33, null
  br i1 %34, label %82, label %35

35:                                               ; preds = %29
  %36 = load ptr, ptr %0, align 8
  %37 = getelementptr inbounds i8, ptr %36, i64 264
  %38 = load ptr, ptr %37, align 8
  %39 = tail call ptr %38(ptr noundef nonnull %0, ptr noundef %1, ptr noundef nonnull @.str.10, ptr noundef nonnull @.str.11) #13
  store ptr %39, ptr @JPEGImageReader_acceptPixelsID, align 8
  %40 = icmp eq ptr %39, null
  br i1 %40, label %82, label %41

41:                                               ; preds = %35
  %42 = load ptr, ptr %0, align 8
  %43 = getelementptr inbounds i8, ptr %42, i64 264
  %44 = load ptr, ptr %43, align 8
  %45 = tail call ptr %44(ptr noundef nonnull %0, ptr noundef %1, ptr noundef nonnull @.str.12, ptr noundef nonnull @.str.5) #13
  store ptr %45, ptr @JPEGImageReader_passStartedID, align 8
  %46 = icmp eq ptr %45, null
  br i1 %46, label %82, label %47

47:                                               ; preds = %41
  %48 = load ptr, ptr %0, align 8
  %49 = getelementptr inbounds i8, ptr %48, i64 264
  %50 = load ptr, ptr %49, align 8
  %51 = tail call ptr %50(ptr noundef nonnull %0, ptr noundef %1, ptr noundef nonnull @.str.13, ptr noundef nonnull @.str.14) #13
  store ptr %51, ptr @JPEGImageReader_passCompleteID, align 8
  %52 = icmp eq ptr %51, null
  br i1 %52, label %82, label %53

53:                                               ; preds = %47
  %54 = load ptr, ptr %0, align 8
  %55 = getelementptr inbounds i8, ptr %54, i64 264
  %56 = load ptr, ptr %55, align 8
  %57 = tail call ptr %56(ptr noundef nonnull %0, ptr noundef %1, ptr noundef nonnull @.str.15, ptr noundef nonnull @.str.5) #13
  store ptr %57, ptr @JPEGImageReader_pushBackID, align 8
  %58 = icmp eq ptr %57, null
  br i1 %58, label %82, label %59

59:                                               ; preds = %53
  %60 = load ptr, ptr %0, align 8
  %61 = getelementptr inbounds i8, ptr %60, i64 264
  %62 = load ptr, ptr %61, align 8
  %63 = tail call ptr %62(ptr noundef nonnull %0, ptr noundef %1, ptr noundef nonnull @.str.16, ptr noundef nonnull @.str.5) #13
  store ptr %63, ptr @JPEGImageReader_skipPastImageID, align 8
  %64 = icmp eq ptr %63, null
  br i1 %64, label %82, label %65

65:                                               ; preds = %59
  %66 = load ptr, ptr %0, align 8
  %67 = getelementptr inbounds i8, ptr %66, i64 752
  %68 = load ptr, ptr %67, align 8
  %69 = tail call ptr %68(ptr noundef nonnull %0, ptr noundef %3, ptr noundef nonnull @.str.17, ptr noundef nonnull @.str.18) #13
  store ptr %69, ptr @JPEGQTable_tableID, align 8
  %70 = icmp eq ptr %69, null
  br i1 %70, label %82, label %71

71:                                               ; preds = %65
  %72 = load ptr, ptr %0, align 8
  %73 = getelementptr inbounds i8, ptr %72, i64 752
  %74 = load ptr, ptr %73, align 8
  %75 = tail call ptr %74(ptr noundef nonnull %0, ptr noundef %4, ptr noundef nonnull @.str.19, ptr noundef nonnull @.str.20) #13
  store ptr %75, ptr @JPEGHuffmanTable_lengthsID, align 8
  %76 = icmp eq ptr %75, null
  br i1 %76, label %82, label %77

77:                                               ; preds = %71
  %78 = load ptr, ptr %0, align 8
  %79 = getelementptr inbounds i8, ptr %78, i64 752
  %80 = load ptr, ptr %79, align 8
  %81 = tail call ptr %80(ptr noundef nonnull %0, ptr noundef %4, ptr noundef nonnull @.str.21, ptr noundef nonnull @.str.20) #13
  store ptr %81, ptr @JPEGHuffmanTable_valuesID, align 8
  br label %82

82:                                               ; preds = %77, %71, %65, %59, %53, %47, %41, %35, %29, %23, %17, %11, %5
  ret void
}